; Function Attrs: mustprogress uwtable
define hidden noundef ptr @_ZNK19OpenColorIO_v2_5dev25BuiltinConfigRegistryImpl22getBuiltinConfigUINameEm(ptr noundef nonnull readonly align 8 captures(none) dereferenceable(32) %0, i64 noundef %1) unnamed_addr #2 align 2 personality ptr @__gxx_personality_v0 {
  %3 = getelementptr inbounds nuw i8, ptr %0, i64 8
  %4 = getelementptr inbounds nuw i8, ptr %0, i64 16
  %5 = load ptr, ptr %4, align 8, !tbaa !88
  %6 = load ptr, ptr %3, align 8, !tbaa !86
  %7 = ptrtoint ptr %5 to i64
  %8 = ptrtoint ptr %6 to i64
  %9 = sub i64 %7, %8
  %10 = sdiv exact i64 %9, 80
  %.not = icmp ult i64 %1, %10
  br i1 %.not, label %16, label %11

11:                                               ; preds = %2
  %12 = tail call ptr @__cxa_allocate_exception(i64 16) #28
  invoke void @_ZN19OpenColorIO_v2_5dev9ExceptionC1EPKc(ptr noundef nonnull align 8 dereferenceable(16) %12, ptr noundef nonnull @_ZL27OUT_OF_RANGE_EXCEPTION_TEXT)
          to label %13 unwind label %14

13:                                               ; preds = %11
  tail call void @__cxa_throw(ptr nonnull %12, ptr nonnull @_ZTIN19OpenColorIO_v2_5dev9ExceptionE, ptr nonnull @_ZN19OpenColorIO_v2_5dev9ExceptionD1Ev) #29
  unreachable

14:                                               ; preds = %11
  %15 = landingpad { ptr, i32 }
          cleanup
  tail call void @__cxa_free_exception(ptr nonnull %12) #28
  resume { ptr, i32 } %15

16:                                               ; preds = %2
  %17 = getelementptr inbounds nuw %"struct.OpenColorIO_v2_5dev::BuiltinConfigRegistryImpl::BuiltinConfigData", ptr %6, i64 %1, i32 2
  %18 = load ptr, ptr %17, align 8, !tbaa !12
  ret ptr %18
}